Certificate:
    Data:
        Version: 3 (0x2)
        Serial Number: 4096 (0x1000)
    Signature Algorithm: md5WithRSAEncryption
        Issuer: C=us, ST=utah, L=slc, O=uofu, OU=msd, CN=eric/emailAddress=dude7689@hotmail.com
        Validity
            Not Before: Mar 18 17:18:09 2020 GMT
            Not After : Mar 18 17:18:09 2021 GMT
        Subject: C=us, ST=utah, O=uofu, OU=msd, CN=eric/emailAddress=dude7689@hotmail.com
        Subject Public Key Info:
            Public Key Algorithm: rsaEncryption
                Public-Key: (4096 bit)
                Modulus:
                    00:a4:9e:15:34:35:f7:93:cb:2b:65:dc:86:31:98:
                    83:c7:e2:bb:e5:f1:6c:a4:b3:1b:aa:8c:c2:ab:85:
                    86:0f:b2:9f:e8:da:c6:d8:21:60:89:b8:74:71:98:
                    c5:a3:1a:70:76:96:cb:68:c5:16:db:bd:74:7d:9d:
                    42:fa:7b:2b:7f:65:dc:e9:e2:8d:dc:bc:73:6b:80:
                    0a:d0:c3:19:b2:d5:00:08:e5:fc:8c:ce:33:ef:8e:
                    f2:30:1e:47:f1:ad:44:9f:31:f5:ab:47:b0:0a:f2:
                    91:04:5f:fa:93:7c:8f:ea:7f:44:17:d6:0a:65:c9:
                    16:6b:10:0e:3b:d3:f8:60:33:38:b3:19:c3:8c:f4:
                    23:5f:4a:9a:53:ec:ed:58:d0:54:0a:25:ef:d3:e5:
                    b6:33:9a:70:31:8b:aa:77:0b:cc:96:5b:d7:15:0a:
                    dc:03:a6:dc:ad:48:6c:f9:5d:88:55:ee:79:86:77:
                    b6:ff:6e:78:15:b2:c0:12:32:5f:d7:26:91:b4:34:
                    b6:09:8b:0e:cd:06:5a:2f:26:11:2e:78:42:d7:cb:
                    a9:89:d9:2b:7c:d9:bb:bf:be:ea:1c:02:ed:bc:4c:
                    1c:bd:43:10:50:a4:2f:83:3d:80:2c:a8:2c:ef:91:
                    0f:9c:77:ce:22:76:5b:c4:9c:17:47:97:09:af:17:
                    d7:7c:71:36:25:4a:76:5c:f4:fd:c2:e7:bd:cc:48:
                    de:7d:4f:62:ce:69:9c:33:9b:24:c4:47:5d:fc:8b:
                    b0:73:17:19:94:06:da:ae:b2:b7:bd:0d:97:7f:f9:
                    f1:fc:38:72:07:77:be:85:e6:16:d6:f1:90:e8:5d:
                    59:1e:80:6d:43:f3:09:4e:c8:e8:dc:a8:99:4a:69:
                    f9:16:7d:f7:76:25:32:a6:12:15:19:ac:5c:ce:62:
                    be:fd:fb:ee:3a:5b:7a:80:b8:0e:3b:b6:38:35:3c:
                    27:2a:33:ba:0e:12:76:07:3b:bd:ef:b7:aa:1b:ad:
                    e0:53:10:d4:ef:68:51:92:db:51:f2:fa:e8:16:db:
                    46:37:86:f8:55:73:ac:26:bb:9f:c4:a2:c2:33:28:
                    68:6f:6d:8d:bd:74:08:5a:07:10:70:d9:41:f8:1b:
                    f9:77:b7:a6:9e:e4:45:11:09:8c:9d:01:40:59:b9:
                    ba:49:c7:5b:35:30:75:92:91:ea:da:4c:a3:46:82:
                    80:36:06:57:20:a0:24:13:c5:fc:a2:7d:d6:13:fb:
                    a0:23:86:62:0a:cf:ba:7b:d9:82:7d:f8:34:82:99:
                    38:5f:2e:00:1f:ce:6c:82:38:d2:00:84:55:72:4a:
                    41:0e:2a:87:ba:50:78:5f:9d:28:12:5b:31:88:d0:
                    47:05:8d
                Exponent: 65537 (0x10001)
        X509v3 extensions:
            X509v3 Basic Constraints: 
                CA:FALSE
            Netscape Comment: 
                OpenSSL Generated Certificate
            X509v3 Subject Key Identifier: 
                91:E5:C7:3F:04:C3:31:5E:13:D5:D9:0F:FB:0B:C4:9E:08:FA:78:B8
            X509v3 Authority Key Identifier: 
                DirName:/C=us/ST=utah/L=slc/O=uofu/OU=msd/CN=eric/emailAddress=dude7689@hotmail.com
                serial:F7:6E:E0:2A:E9:32:CE:B0

    Signature Algorithm: md5WithRSAEncryption
         99:e9:41:c5:42:5d:2e:a4:e3:c1:84:0e:95:93:7f:e9:87:96:
         ac:f4:bf:23:a4:20:e4:ab:4a:a0:e7:2d:26:0c:9d:68:87:ba:
         0e:5b:4c:5b:3c:9d:6b:c3:87:ca:06:97:a2:87:31:88:bb:9c:
         e4:8e:2d:9a:75:ca:11:74:1f:f5:f1:ac:aa:16:8c:16:ae:02:
         3d:01:42:e2:1b:d2:7a:44:c7:f3:7a:0f:6b:0a:07:6e:54:53:
         ea:f8:51:e0:3d:32:a3:a1:86:f5:88:e4:de:b0:5b:46:4b:a6:
         1e:9a:12:31:72:a4:40:2a:74:52:cd:e6:32:f3:75:33:6f:38:
         b2:8c:32:27:1c:b6:34:c3:6d:97:29:d9:d1:f2:70:dc:4c:97:
         df:f9:a4:f5:29:b7:dc:3e:89:e8:dc:8e:54:7b:32:79:9f:c9:
         b1:aa:ca:75:15:17:4f:ce:e7:16:c8:1a:35:49:fb:1e:5b:9c:
         74:80:cc:5a:7a:83:e6:a4:f9:67:c3:5f:49:ff:c6:2c:78:ab:
         b9:fb:10:1f:ec:41:01:fc:28:4f:03:ba:90:c3:c4:dd:74:e2:
         f9:b4:99:ec:d5:9b:fa:a5:31:84:7f:d6:fd:4a:17:06:56:e2:
         c8:47:60:e4:5e:34:b5:62:67:e9:91:e3:5a:5e:5b:6f:c5:c1:
         32:03:41:ad:af:0b:ba:fb:fa:ef:d0:62:ca:ef:c6:e8:53:4f:
         33:3b:ff:0a:bf:cd:ac:44:31:19:9e:42:90:fb:82:9a:cc:04:
         ef:8b:76:da:7b:01:69:cb:5e:50:0d:3b:ef:16:0b:fe:0a:18:
         dd:31:8a:e6:14:f3:97:80:4f:ec:93:76:c1:0c:c0:03:c0:f3:
         0c:91:1c:3f:e8:3c:10:bd:39:75:af:9f:3f:d6:7f:1c:8e:3c:
         d6:1a:d2:b4:91:29:66:b4:18:e2:16:bf:b5:0c:e6:e3:b0:50:
         c6:fa:3a:34:a4:ee:ab:9c:70:1f:0e:70:18:95:a0:ac:d7:27:
         6a:c8:5c:f3:e2:e0:c5:7b:9f:1a:00:47:c3:5f:3e:12:77:fc:
         8b:52:db:ab:67:d7:3e:03:32:12:8e:a2:65:dc:15:65:6d:60:
         20:88:64:52:ce:27:ce:41:8b:bd:3b:25:35:23:96:20:d5:e8:
         3f:46:3f:23:68:25:d5:19:81:26:5f:eb:57:01:49:35:33:1f:
         8e:ad:e2:b3:eb:a7:9c:be:18:10:91:f4:33:64:81:4b:6a:03:
         ea:fd:62:01:61:35:76:ac:47:3f:8f:1e:c8:c4:f3:1d:7d:79:
         6b:78:98:e6:bf:04:57:dd:d2:80:59:68:72:42:78:16:d0:00:
         b0:96:1e:72:02:25:5d:08
-----BEGIN CERTIFICATE-----
MIIGWjCCBEKgAwIBAgICEAAwDQYJKoZIhvcNAQEEBQAwezELMAkGA1UEBhMCdXMx
DTALBgNVBAgMBHV0YWgxDDAKBgNVBAcMA3NsYzENMAsGA1UECgwEdW9mdTEMMAoG
A1UECwwDbXNkMQ0wCwYDVQQDDARlcmljMSMwIQYJKoZIhvcNAQkBFhRkdWRlNzY4
OUBob3RtYWlsLmNvbTAeFw0yMDAzMTgxNzE4MDlaFw0yMTAzMTgxNzE4MDlaMG0x
CzAJBgNVBAYTAnVzMQ0wCwYDVQQIDAR1dGFoMQ0wCwYDVQQKDAR1b2Z1MQwwCgYD
VQQLDANtc2QxDTALBgNVBAMMBGVyaWMxIzAhBgkqhkiG9w0BCQEWFGR1ZGU3Njg5
QGhvdG1haWwuY29tMIICIjANBgkqhkiG9w0BAQEFAAOCAg8AMIICCgKCAgEApJ4V
NDX3k8srZdyGMZiDx+K75fFspLMbqozCq4WGD7Kf6NrG2CFgibh0cZjFoxpwdpbL
aMUW2710fZ1C+nsrf2Xc6eKN3Lxza4AK0MMZstUACOX8jM4z747yMB5H8a1EnzH1
q0ewCvKRBF/6k3yP6n9EF9YKZckWaxAOO9P4YDM4sxnDjPQjX0qaU+ztWNBUCiXv
0+W2M5pwMYuqdwvMllvXFQrcA6bcrUhs+V2IVe55hne2/254FbLAEjJf1yaRtDS2
CYsOzQZaLyYRLnhC18upidkrfNm7v77qHALtvEwcvUMQUKQvgz2ALKgs75EPnHfO
InZbxJwXR5cJrxfXfHE2JUp2XPT9wue9zEjefU9izmmcM5skxEdd/IuwcxcZlAba
rrK3vQ2Xf/nx/DhyB3e+heYW1vGQ6F1ZHoBtQ/MJTsjo3KiZSmn5Fn33diUyphIV
GaxczmK+/fvuOlt6gLgOO7Y4NTwnKjO6DhJ2Bzu977eqG63gUxDU72hRkttR8vro
FttGN4b4VXOsJrufxKLCMyhob22NvXQIWgcQcNlB+Bv5d7emnuRFEQmMnQFAWbm6
ScdbNTB1kpHq2kyjRoKANgZXIKAkE8X8on3WE/ugI4ZiCs+6e9mCffg0gpk4Xy4A
H85sgjjSAIRVckpBDiqHulB4X50oElsxiNBHBY0CAwEAAaOB9TCB8jAJBgNVHRME
AjAAMCwGCWCGSAGG+EIBDQQfFh1PcGVuU1NMIEdlbmVyYXRlZCBDZXJ0aWZpY2F0
ZTAdBgNVHQ4EFgQUkeXHPwTDMV4T1dkP+wvEngj6eLgwgZcGA1UdIwSBjzCBjKF/
pH0wezELMAkGA1UEBhMCdXMxDTALBgNVBAgMBHV0YWgxDDAKBgNVBAcMA3NsYzEN
MAsGA1UECgwEdW9mdTEMMAoGA1UECwwDbXNkMQ0wCwYDVQQDDARlcmljMSMwIQYJ
KoZIhvcNAQkBFhRkdWRlNzY4OUBob3RtYWlsLmNvbYIJAPdu4CrpMs6wMA0GCSqG
SIb3DQEBBAUAA4ICAQCZ6UHFQl0upOPBhA6Vk3/ph5as9L8jpCDkq0qg5y0mDJ1o
h7oOW0xbPJ1rw4fKBpeihzGIu5zkji2adcoRdB/18ayqFowWrgI9AULiG9J6RMfz
eg9rCgduVFPq+FHgPTKjoYb1iOTesFtGS6YemhIxcqRAKnRSzeYy83UzbziyjDIn
HLY0w22XKdnR8nDcTJff+aT1KbfcPono3I5UezJ5n8mxqsp1FRdPzucWyBo1Sfse
W5x0gMxaeoPmpPlnw19J/8YseKu5+xAf7EEB/ChPA7qQw8TddOL5tJns1Zv6pTGE
f9b9ShcGVuLIR2DkXjS1YmfpkeNaXltvxcEyA0Gtrwu6+/rv0GLK78boU08zO/8K
v82sRDEZnkKQ+4KazATvi3baewFpy15QDTvvFgv+ChjdMYrmFPOXgE/sk3bBDMAD
wPMMkRw/6DwQvTl1r58/1n8cjjzWGtK0kSlmtBjiFr+1DObjsFDG+jo0pO6rnHAf
DnAYlaCs1ydqyFzz4uDFe58aAEfDXz4Sd/yLUturZ9c+AzISjqJl3BVlbWAgiGRS
zifOQYu9OyU1I5Yg1eg/Rj8jaCXVGYEmX+tXAUk1Mx+OreKz66ecvhgQkfQzZIFL
agPq/WIBYTV2rEc/jx7IxPMdfXlreJjmvwRX3dKAWWhyQngW0ACwlh5yAiVdCA==
-----END CERTIFICATE-----
