Certificate:
    Data:
        Version: 3 (0x2)
        Serial Number: 4097 (0x1001)
    Signature Algorithm: md5WithRSAEncryption
        Issuer: C=us, ST=utah, L=slc, O=uofu, OU=msd, CN=eric/emailAddress=dude7689@hotmail.com
        Validity
            Not Before: Mar 19 17:30:16 2020 GMT
            Not After : Mar 19 17:30:16 2021 GMT
        Subject: C=us, ST=utah, O=uofu, OU=msd, CN=ericclient/emailAddress=dude7689@hotmail.com
        Subject Public Key Info:
            Public Key Algorithm: rsaEncryption
                Public-Key: (4096 bit)
                Modulus:
                    00:cf:cf:5e:a2:cb:4d:66:1a:4e:4f:27:3e:2c:15:
                    ec:14:8e:9d:e8:88:7a:26:fc:dc:ca:ac:85:9d:72:
                    0a:0a:9a:36:b4:4f:92:d6:b0:16:16:6b:94:3e:31:
                    31:ee:a4:c9:d0:7f:59:c3:83:d9:a0:c7:26:dd:30:
                    f3:ff:11:50:e5:65:39:13:39:f7:b1:6d:9d:07:de:
                    62:4b:67:fb:05:a9:43:94:0c:9a:69:e5:06:8b:e5:
                    90:32:3e:3e:e5:6f:68:e5:93:15:4f:f3:e6:a1:dc:
                    43:df:d2:cd:a8:16:44:41:92:c4:a9:9a:1a:f9:24:
                    61:81:d6:49:55:b4:eb:8e:ea:26:9e:95:d2:18:6e:
                    e3:e7:2b:c7:23:2a:40:13:14:b8:94:7f:9f:86:87:
                    35:ad:f9:79:59:53:e0:0b:0c:ef:bc:e9:37:da:54:
                    03:86:52:42:3f:a6:d6:c4:ce:18:8f:8c:a1:05:60:
                    27:dc:72:40:60:1c:a5:c1:c7:da:a0:5a:b6:6f:6c:
                    fb:22:58:b1:46:ce:54:46:82:5d:63:a5:d5:11:82:
                    e7:b7:2b:23:42:50:64:c3:46:1a:5c:6e:ee:02:aa:
                    32:d9:2a:97:57:71:a6:32:19:fd:40:21:f2:94:95:
                    5d:43:7a:c3:56:d0:0e:8c:00:cc:c0:c1:7c:2e:cb:
                    58:5f:9a:7a:6b:6d:96:a9:f5:f0:c2:9e:90:5a:ad:
                    88:46:26:0e:11:68:01:3b:fe:50:1c:17:b0:30:32:
                    a7:8e:c9:78:0a:8a:af:53:9c:2c:71:7a:21:14:4d:
                    1f:b0:e6:d4:56:46:ff:35:d2:b4:ed:09:b4:d9:2a:
                    2b:a8:fa:82:8c:47:d5:8d:c5:7b:30:7c:f0:09:97:
                    3e:c1:32:a7:92:4c:5c:46:9e:cb:cb:5a:b1:aa:78:
                    49:eb:b3:01:64:bf:86:a8:9c:e6:30:4a:61:1d:d9:
                    25:a6:d0:27:2f:f8:37:73:2f:6b:ca:0a:8e:7b:49:
                    87:0d:53:49:1b:8a:68:be:98:13:fa:f3:10:a4:29:
                    97:94:4c:77:f8:79:4f:54:18:7d:73:a4:a5:ea:f5:
                    02:19:e2:c0:1d:7d:7e:75:5c:0c:ed:17:ff:ee:45:
                    b9:d4:c2:6e:5e:11:59:bb:c2:f0:7f:e9:2a:cf:6d:
                    3b:03:90:6c:e2:7c:3e:a4:37:89:6b:e5:78:6a:97:
                    18:20:49:d9:22:43:6a:58:fb:49:44:72:ce:d7:a8:
                    75:d6:e2:5b:ce:e2:ab:67:9f:56:82:45:fd:5c:7a:
                    09:e0:55:9a:c4:af:27:15:9d:31:7c:38:f2:cf:09:
                    3a:b7:d7:8c:e9:cf:7a:b0:7b:7d:43:45:5b:d7:2f:
                    b5:14:af
                Exponent: 65537 (0x10001)
        X509v3 extensions:
            X509v3 Basic Constraints: 
                CA:FALSE
            Netscape Comment: 
                OpenSSL Generated Certificate
            X509v3 Subject Key Identifier: 
                B3:2A:DC:F6:7F:E3:AE:B8:1B:68:13:0D:AB:64:96:01:82:6F:91:02
            X509v3 Authority Key Identifier: 
                DirName:/C=us/ST=utah/L=slc/O=uofu/OU=msd/CN=eric/emailAddress=dude7689@hotmail.com
                serial:F7:6E:E0:2A:E9:32:CE:B0

    Signature Algorithm: md5WithRSAEncryption
         78:62:c9:93:85:82:33:98:20:78:6f:e8:33:7d:7d:01:0e:56:
         fc:cf:ea:01:b3:22:2c:35:cf:1c:53:82:98:ac:c8:13:4b:2b:
         ad:c5:d8:54:7b:1f:fe:d9:fc:fd:cb:3e:72:22:18:6f:b1:92:
         c6:35:f6:c7:3e:89:a0:08:d5:bc:88:61:34:fd:10:ed:31:d4:
         a7:64:06:b0:4a:7d:0e:35:fd:83:3c:ca:af:a6:10:01:81:ba:
         92:33:c9:bd:ca:a5:cc:21:31:60:e6:ac:98:be:80:18:c9:25:
         91:e2:8a:fc:27:04:95:9e:7d:c2:d4:d4:a4:72:a7:5f:90:05:
         97:77:1d:5a:5f:34:85:97:48:43:26:d8:57:50:88:db:51:95:
         3b:07:38:25:d8:4b:37:89:62:60:8a:41:52:dd:cd:b0:8b:c7:
         06:22:10:7f:5d:4d:87:0a:11:6f:a4:1a:f1:58:db:6e:fd:c4:
         17:4b:d6:11:ca:c2:43:65:70:81:9f:64:75:94:3c:e9:c7:7b:
         cf:32:8f:d0:5f:3d:5a:9b:d3:82:95:85:78:a9:d8:1d:b0:68:
         a3:75:da:f6:fa:fc:32:66:ad:6b:95:33:e7:5d:93:39:b2:31:
         8b:4b:d3:4a:41:3b:4b:e0:04:51:a8:e9:79:85:ae:97:6d:b0:
         ed:1c:d4:fe:c8:10:be:d3:a8:1b:28:6d:f0:a9:3e:20:9b:1d:
         55:12:0e:91:46:6d:e2:a8:a0:2f:08:00:3c:ae:30:26:42:4b:
         36:83:a9:9e:68:e4:ea:ed:1d:53:89:39:56:d5:b5:58:f8:e4:
         c1:b2:ae:bc:77:0a:1d:b5:f7:ec:4c:41:f1:23:f2:12:1b:1b:
         3e:75:00:5a:cd:5a:f6:e8:d2:8f:cc:17:0c:26:9a:62:8c:e5:
         f9:ac:a3:02:68:7d:a6:cd:e7:bd:7d:5d:63:17:27:d0:24:f1:
         ca:e8:33:be:b1:e0:0d:1c:97:88:a0:87:63:28:88:bf:f2:fd:
         3d:22:01:60:67:a4:65:dc:62:b5:9f:9e:5d:ec:85:36:34:a6:
         bc:9f:b7:a7:9b:30:14:94:d4:5c:0e:ba:b7:51:08:f3:95:91:
         1a:d3:9e:66:3a:bf:03:8d:cd:29:45:26:48:94:15:b4:5f:e6:
         f0:fe:c5:26:f4:28:d2:91:26:fe:f2:32:aa:3a:ec:82:81:3a:
         74:9f:0e:85:1a:96:8f:c4:bc:3e:d4:7c:71:ab:32:3a:6f:d3:
         9a:1a:62:9e:53:db:bb:96:42:81:6b:30:3f:36:28:44:e8:7a:
         9e:31:ca:dc:9f:c7:30:cf:ad:7b:e1:f0:47:54:d8:e3:42:43:
         5b:42:96:44:21:ee:67:14
-----BEGIN CERTIFICATE-----
MIIGYDCCBEigAwIBAgICEAEwDQYJKoZIhvcNAQEEBQAwezELMAkGA1UEBhMCdXMx
DTALBgNVBAgMBHV0YWgxDDAKBgNVBAcMA3NsYzENMAsGA1UECgwEdW9mdTEMMAoG
A1UECwwDbXNkMQ0wCwYDVQQDDARlcmljMSMwIQYJKoZIhvcNAQkBFhRkdWRlNzY4
OUBob3RtYWlsLmNvbTAeFw0yMDAzMTkxNzMwMTZaFw0yMTAzMTkxNzMwMTZaMHMx
CzAJBgNVBAYTAnVzMQ0wCwYDVQQIDAR1dGFoMQ0wCwYDVQQKDAR1b2Z1MQwwCgYD
VQQLDANtc2QxEzARBgNVBAMMCmVyaWNjbGllbnQxIzAhBgkqhkiG9w0BCQEWFGR1
ZGU3Njg5QGhvdG1haWwuY29tMIICIjANBgkqhkiG9w0BAQEFAAOCAg8AMIICCgKC
AgEAz89eostNZhpOTyc+LBXsFI6d6Ih6JvzcyqyFnXIKCpo2tE+S1rAWFmuUPjEx
7qTJ0H9Zw4PZoMcm3TDz/xFQ5WU5Ezn3sW2dB95iS2f7BalDlAyaaeUGi+WQMj4+
5W9o5ZMVT/PmodxD39LNqBZEQZLEqZoa+SRhgdZJVbTrjuomnpXSGG7j5yvHIypA
ExS4lH+fhoc1rfl5WVPgCwzvvOk32lQDhlJCP6bWxM4Yj4yhBWAn3HJAYBylwcfa
oFq2b2z7IlixRs5URoJdY6XVEYLntysjQlBkw0YaXG7uAqoy2SqXV3GmMhn9QCHy
lJVdQ3rDVtAOjADMwMF8LstYX5p6a22WqfXwwp6QWq2IRiYOEWgBO/5QHBewMDKn
jsl4CoqvU5wscXohFE0fsObUVkb/NdK07Qm02SorqPqCjEfVjcV7MHzwCZc+wTKn
kkxcRp7Ly1qxqnhJ67MBZL+GqJzmMEphHdklptAnL/g3cy9rygqOe0mHDVNJG4po
vpgT+vMQpCmXlEx3+HlPVBh9c6Sl6vUCGeLAHX1+dVwM7Rf/7kW51MJuXhFZu8Lw
f+kqz207A5Bs4nw+pDeJa+V4apcYIEnZIkNqWPtJRHLO16h11uJbzuKrZ59WgkX9
XHoJ4FWaxK8nFZ0xfDjyzwk6t9eM6c96sHt9Q0Vb1y+1FK8CAwEAAaOB9TCB8jAJ
BgNVHRMEAjAAMCwGCWCGSAGG+EIBDQQfFh1PcGVuU1NMIEdlbmVyYXRlZCBDZXJ0
aWZpY2F0ZTAdBgNVHQ4EFgQUsyrc9n/jrrgbaBMNq2SWAYJvkQIwgZcGA1UdIwSB
jzCBjKF/pH0wezELMAkGA1UEBhMCdXMxDTALBgNVBAgMBHV0YWgxDDAKBgNVBAcM
A3NsYzENMAsGA1UECgwEdW9mdTEMMAoGA1UECwwDbXNkMQ0wCwYDVQQDDARlcmlj
MSMwIQYJKoZIhvcNAQkBFhRkdWRlNzY4OUBob3RtYWlsLmNvbYIJAPdu4CrpMs6w
MA0GCSqGSIb3DQEBBAUAA4ICAQB4YsmThYIzmCB4b+gzfX0BDlb8z+oBsyIsNc8c
U4KYrMgTSyutxdhUex/+2fz9yz5yIhhvsZLGNfbHPomgCNW8iGE0/RDtMdSnZAaw
Sn0ONf2DPMqvphABgbqSM8m9yqXMITFg5qyYvoAYySWR4or8JwSVnn3C1NSkcqdf
kAWXdx1aXzSFl0hDJthXUIjbUZU7Bzgl2Es3iWJgikFS3c2wi8cGIhB/XU2HChFv
pBrxWNtu/cQXS9YRysJDZXCBn2R1lDzpx3vPMo/QXz1am9OClYV4qdgdsGijddr2
+vwyZq1rlTPnXZM5sjGLS9NKQTtL4ARRqOl5ha6XbbDtHNT+yBC+06gbKG3wqT4g
mx1VEg6RRm3iqKAvCAA8rjAmQks2g6meaOTq7R1TiTlW1bVY+OTBsq68dwodtffs
TEHxI/ISGxs+dQBazVr26NKPzBcMJppijOX5rKMCaH2mzee9fV1jFyfQJPHK6DO+
seANHJeIoIdjKIi/8v09IgFgZ6Rl3GK1n55d7IU2NKa8n7enmzAUlNRcDrq3UQjz
lZEa055mOr8Djc0pRSZIlBW0X+bw/sUm9CjSkSb+8jKqOuyCgTp0nw6FGpaPxLw+
1HxxqzI6b9OaGmKeU9u7lkKBazA/NihE6HqeMcrcn8cwz6174fBHVNjjQkNbQpZE
Ie5nFA==
-----END CERTIFICATE-----
